; Function Attrs: nounwind uwtable
define range(i32 -1, 1) i32 @H5HF__tiny_read(ptr nocapture noundef readonly %0, ptr noundef %1, ptr noundef %2) local_unnamed_addr #1 {
  %4 = getelementptr i8, ptr %0, i64 696
  %.val = load i8, ptr %4, align 8
  %5 = trunc i8 %.val to i1
  br i1 %5, label %9, label %6

6:                                                ; preds = %3
  %7 = load i8, ptr %1, align 1
  %8 = and i8 %7, 15
  br label %H5HF__tiny_get_obj_len.exit.i

9:                                                ; preds = %3
  %10 = getelementptr inbounds i8, ptr %1, i64 1
  %11 = load i8, ptr %10, align 1
  br label %H5HF__tiny_get_obj_len.exit.i

H5HF__tiny_get_obj_len.exit.i:                    ; preds = %9, %6
  %.010.v.i = phi i64 [ 2, %9 ], [ 1, %6 ]
  %.0.in.i.i = phi i8 [ %11, %9 ], [ %8, %6 ]
  %.0.i.i = zext i8 %.0.in.i.i to i64
  %12 = add nuw nsw i64 %.0.i.i, 1
  %.010.i = getelementptr inbounds i8, ptr %1, i64 %.010.v.i
  %13 = tail call i32 @H5HF__op_read(ptr noundef nonnull %.010.i, i64 noundef %12, ptr noundef %2) #5
  %14 = icmp slt i32 %13, 0
  br i1 %14, label %15, label %H5HF__tiny_op_real.exit

15:                                               ; preds = %H5HF__tiny_get_obj_len.exit.i
  %16 = load i64, ptr @H5E_HEAP_g, align 8
  %17 = load i64, ptr @H5E_CANTOPERATE_g, align 8
  %18 = tail call i32 (ptr, ptr, i32, i64, i64, ptr, ...) @H5E_printf_stack(ptr noundef nonnull @.str, ptr noundef nonnull @__func__.H5HF__tiny_op_real, i32 noundef 248, i64 noundef %16, i64 noundef %17, ptr noundef nonnull @.str.3) #5
  %19 = load i64, ptr @H5E_HEAP_g, align 8
  %20 = load i64, ptr @H5E_CANTOPERATE_g, align 8
  %21 = tail call i32 (ptr, ptr, i32, i64, i64, ptr, ...) @H5E_printf_stack(ptr noundef nonnull @.str, ptr noundef nonnull @__func__.H5HF__tiny_read, i32 noundef 279, i64 noundef %19, i64 noundef %20, ptr noundef nonnull @.str.2) #5
  br label %H5HF__tiny_op_real.exit

H5HF__tiny_op_real.exit:                          ; preds = %H5HF__tiny_get_obj_len.exit.i, %15
  %.0 = phi i32 [ -1, %15 ], [ 0, %H5HF__tiny_get_obj_len.exit.i ]
  ret i32 %.0
}